target datalayout = "e-m:e-p270:32:32-p271:32:32-p272:64:64-i64:64-i128:128-f80:128-n8:16:32:64-S128"
target triple = "x86_64-pc-linux-gnu"

%struct.pmix_mca_base_framework_t = type { ptr, ptr, ptr, ptr, ptr, ptr, i32, i32, ptr, ptr, i32, i32, %struct.pmix_list_t, %struct.pmix_list_t }
%struct.pmix_list_t = type { %struct.pmix_object_t, %struct.pmix_list_item_t, i64 }
%struct.pmix_object_t = type { %union.pthread_mutex_t, ptr, i32, %struct.pmix_tma }
%union.pthread_mutex_t = type { %struct.__pthread_mutex_s }
%struct.__pthread_mutex_s = type { i32, i32, i32, i32, i32, i16, i16, %struct.__pthread_internal_list }
%struct.__pthread_internal_list = type { ptr, ptr }
%struct.pmix_tma = type { ptr, ptr, ptr, ptr, ptr, ptr, ptr, ptr }
%struct.pmix_list_item_t = type { %struct.pmix_object_t, ptr, ptr, i32 }
%struct.pmix_output_desc_t = type { i8, i8, i32, i8, i32, ptr, ptr, i32, ptr, i32, i8, i8, i8, i8, ptr, i32, i32 }
%struct.pmix_buffer_t = type { %struct.pmix_object_t, i8, ptr, ptr, ptr, i64, i64 }

@pmix_bfrops_base_framework = external global %struct.pmix_mca_base_framework_t, align 8
@pmix_output_info = external global [0 x %struct.pmix_output_desc_t], align 8
@.str.5 = private unnamed_addr constant [29 x i8] c"pmix_bfrop_unpack_bool * %d\0A\00", align 1

; Function Attrs: nounwind uwtable
define i32 @pmix_bfrops_base_unpack_bool(ptr noundef %0, ptr noundef %1, ptr noundef %2, ptr noundef %3, i16 noundef zeroext %4) #0 {
  %6 = alloca i32, align 4
  %7 = alloca ptr, align 8
  %8 = alloca ptr, align 8
  %9 = alloca ptr, align 8
  %10 = alloca ptr, align 8
  %11 = alloca i16, align 2
  %12 = alloca i32, align 4
  %13 = alloca ptr, align 8
  %14 = alloca ptr, align 8
  %15 = alloca i32, align 4
  store ptr %0, ptr %7, align 8, !tbaa !3
  store ptr %1, ptr %8, align 8, !tbaa !8
  store ptr %2, ptr %9, align 8, !tbaa !8
  store ptr %3, ptr %10, align 8, !tbaa !9
  store i16 %4, ptr %11, align 2, !tbaa !11
  call void @llvm.lifetime.start.p0(i64 4, ptr %12) #11
  call void @llvm.lifetime.start.p0(i64 8, ptr %13) #11
  call void @llvm.lifetime.start.p0(i64 8, ptr %14) #11
  %16 = load i32, ptr getelementptr inbounds nuw (%struct.pmix_mca_base_framework_t, ptr @pmix_bfrops_base_framework, i32 0, i32 11), align 4, !tbaa !15
  %17 = icmp sge i32 %16, 0
  br i1 %17, label %18, label %32

18:                                               ; preds = %5
  %19 = load i32, ptr getelementptr inbounds nuw (%struct.pmix_mca_base_framework_t, ptr @pmix_bfrops_base_framework, i32 0, i32 11), align 4, !tbaa !15
  %20 = icmp slt i32 %19, 64
  br i1 %20, label %21, label %32

21:                                               ; preds = %18
  %22 = load i32, ptr getelementptr inbounds nuw (%struct.pmix_mca_base_framework_t, ptr @pmix_bfrops_base_framework, i32 0, i32 11), align 4, !tbaa !15
  %23 = sext i32 %22 to i64
  %24 = getelementptr inbounds [0 x %struct.pmix_output_desc_t], ptr @pmix_output_info, i64 0, i64 %23
  %25 = getelementptr inbounds nuw %struct.pmix_output_desc_t, ptr %24, i32 0, i32 2
  %26 = load i32, ptr %25, align 4, !tbaa !26
  %27 = icmp sge i32 %26, 20
  br i1 %27, label %28, label %32

28:                                               ; preds = %21
  %29 = load i32, ptr getelementptr inbounds nuw (%struct.pmix_mca_base_framework_t, ptr @pmix_bfrops_base_framework, i32 0, i32 11), align 4, !tbaa !15
  %30 = load ptr, ptr %10, align 8, !tbaa !9
  %31 = load i32, ptr %30, align 4, !tbaa !13
  call void (i32, ptr, ...) @pmix_output(i32 noundef %29, ptr noundef @.str.5, i32 noundef %31)
  br label %32

32:                                               ; preds = %28, %21, %18, %5
  %33 = load ptr, ptr %8, align 8, !tbaa !8
  %34 = load ptr, ptr %10, align 8, !tbaa !9
  %35 = load i32, ptr %34, align 4, !tbaa !13
  %36 = sext i32 %35 to i64
  %37 = call zeroext i1 @pmix_bfrop_too_small(ptr noundef %33, i64 noundef %36)
  br i1 %37, label %38, label %39

38:                                               ; preds = %32
  store i32 -50, ptr %6, align 4
  store i32 1, ptr %15, align 4
  br label %78

39:                                               ; preds = %32
  %40 = load ptr, ptr %8, align 8, !tbaa !8
  %41 = getelementptr inbounds nuw %struct.pmix_buffer_t, ptr %40, i32 0, i32 4
  %42 = load ptr, ptr %41, align 8, !tbaa !37
  store ptr %42, ptr %13, align 8, !tbaa !38
  %43 = load ptr, ptr %9, align 8, !tbaa !8
  store ptr %43, ptr %14, align 8, !tbaa !39
  store i32 0, ptr %12, align 4, !tbaa !13
  br label %44

44:                                               ; preds = %67, %39
  %45 = load i32, ptr %12, align 4, !tbaa !13
  %46 = load ptr, ptr %10, align 8, !tbaa !9
  %47 = load i32, ptr %46, align 4, !tbaa !13
  %48 = icmp slt i32 %45, %47
  br i1 %48, label %49, label %70

49:                                               ; preds = %44
  %50 = load ptr, ptr %13, align 8, !tbaa !38
  %51 = load i32, ptr %12, align 4, !tbaa !13
  %52 = sext i32 %51 to i64
  %53 = getelementptr inbounds i8, ptr %50, i64 %52
  %54 = load i8, ptr %53, align 1, !tbaa !41
  %55 = icmp ne i8 %54, 0
  br i1 %55, label %56, label %61

56:                                               ; preds = %49
  %57 = load ptr, ptr %14, align 8, !tbaa !39
  %58 = load i32, ptr %12, align 4, !tbaa !13
  %59 = sext i32 %58 to i64
  %60 = getelementptr inbounds i8, ptr %57, i64 %59
  store i8 1, ptr %60, align 1, !tbaa !42
  br label %66

61:                                               ; preds = %49
  %62 = load ptr, ptr %14, align 8, !tbaa !39
  %63 = load i32, ptr %12, align 4, !tbaa !13
  %64 = sext i32 %63 to i64
  %65 = getelementptr inbounds i8, ptr %62, i64 %64
  store i8 0, ptr %65, align 1, !tbaa !42
  br label %66

66:                                               ; preds = %61, %56
  br label %67

67:                                               ; preds = %66
  %68 = load i32, ptr %12, align 4, !tbaa !13
  %69 = add nsw i32 %68, 1
  store i32 %69, ptr %12, align 4, !tbaa !13
  br label %44, !llvm.loop !43

70:                                               ; preds = %44
  %71 = load ptr, ptr %10, align 8, !tbaa !9
  %72 = load i32, ptr %71, align 4, !tbaa !13
  %73 = load ptr, ptr %8, align 8, !tbaa !8
  %74 = getelementptr inbounds nuw %struct.pmix_buffer_t, ptr %73, i32 0, i32 4
  %75 = load ptr, ptr %74, align 8, !tbaa !37
  %76 = sext i32 %72 to i64
  %77 = getelementptr inbounds i8, ptr %75, i64 %76
  store ptr %77, ptr %74, align 8, !tbaa !37
  store i32 0, ptr %6, align 4
  store i32 1, ptr %15, align 4
  br label %78

78:                                               ; preds = %70, %38
  call void @llvm.lifetime.end.p0(i64 8, ptr %14) #11
  call void @llvm.lifetime.end.p0(i64 8, ptr %13) #11
  call void @llvm.lifetime.end.p0(i64 4, ptr %12) #11
  %79 = load i32, ptr %6, align 4
  ret i32 %79
}