; Function Attrs: nounwind uwtable
define range(i32 -50, 1) i32 @pmix_bfrops_base_unpack_bool(ptr noundef readnone captures(none) %0, ptr noundef %1, ptr noundef writeonly captures(none) %2, ptr noundef readonly captures(none) %3, i16 noundef zeroext %4) local_unnamed_addr #0 {
  %6 = load i32, ptr getelementptr inbounds nuw (i8, ptr @pmix_bfrops_base_framework, i64 76), align 4, !tbaa !7
  %or.cond = icmp ult i32 %6, 64
  br i1 %or.cond, label %7, label %14

7:                                                ; preds = %5
  %8 = zext nneg i32 %6 to i64
  %9 = getelementptr inbounds nuw [0 x %struct.pmix_output_desc_t], ptr @pmix_output_info, i64 0, i64 %8, i32 2
  %10 = load i32, ptr %9, align 4, !tbaa !19
  %11 = icmp sgt i32 %10, 19
  br i1 %11, label %12, label %14

12:                                               ; preds = %7
  %13 = load i32, ptr %3, align 4, !tbaa !3
  tail call void (i32, ptr, ...) @pmix_output(i32 noundef %6, ptr noundef nonnull @.str.5, i32 noundef %13) #10
  br label %14

14:                                               ; preds = %12, %7, %5
  %15 = load i32, ptr %3, align 4, !tbaa !3
  %16 = sext i32 %15 to i64
  %17 = tail call zeroext i1 @pmix_bfrop_too_small(ptr noundef %1, i64 noundef %16) #10
  br i1 %17, label %28, label %18

18:                                               ; preds = %14
  %19 = getelementptr inbounds nuw i8, ptr %1, i64 144
  %20 = load ptr, ptr %19, align 8, !tbaa !34
  %21 = load i32, ptr %3, align 4, !tbaa !3
  %22 = icmp sgt i32 %21, 0
  br i1 %22, label %.lr.ph.preheader, label %._crit_edge

.lr.ph.preheader:                                 ; preds = %18
  %wide.trip.count = zext nneg i32 %21 to i64
  br label %.lr.ph

.lr.ph:                                           ; preds = %.lr.ph.preheader, %.lr.ph
  %indvars.iv = phi i64 [ 0, %.lr.ph.preheader ], [ %indvars.iv.next, %.lr.ph ]
  %23 = getelementptr inbounds nuw i8, ptr %20, i64 %indvars.iv
  %24 = load i8, ptr %23, align 1, !tbaa !35
  %.not = icmp ne i8 %24, 0
  %spec.select = zext i1 %.not to i8
  %25 = getelementptr inbounds nuw i8, ptr %2, i64 %indvars.iv
  store i8 %spec.select, ptr %25, align 1, !tbaa !36
  %indvars.iv.next = add nuw nsw i64 %indvars.iv, 1
  %exitcond.not = icmp eq i64 %indvars.iv.next, %wide.trip.count
  br i1 %exitcond.not, label %._crit_edge, label %.lr.ph, !llvm.loop !37

._crit_edge:                                      ; preds = %.lr.ph, %18
  %26 = sext i32 %21 to i64
  %27 = getelementptr inbounds i8, ptr %20, i64 %26
  store ptr %27, ptr %19, align 8, !tbaa !34
  br label %28

28:                                               ; preds = %14, %._crit_edge
  %.0 = phi i32 [ 0, %._crit_edge ], [ -50, %14 ]
  ret i32 %.0
}